target datalayout = "e-m:e-p270:32:32-p271:32:32-p272:64:64-i64:64-i128:128-f80:128-n8:16:32:64-S128"
target triple = "x86_64-pc-linux-gnu"

@stdout = external global ptr, align 8
@.str.25 = private unnamed_addr constant [76 x i8] c"usage: %s -i <in_file.h5> -u <in_user_file> [-o <out_file.h5>] [--clobber]\0A\00", align 1
@.str.26 = private unnamed_addr constant [2 x i8] c"\0A\00", align 1
@.str.27 = private unnamed_addr constant [79 x i8] c"Adds user block to front of an HDF5 file and creates a new concatenated file.\0A\00", align 1
@.str.28 = private unnamed_addr constant [9 x i8] c"OPTIONS\0A\00", align 1
@.str.29 = private unnamed_addr constant [51 x i8] c"  -i in_file.h5    Specifies the input HDF5 file.\0A\00", align 1
@.str.30 = private unnamed_addr constant [75 x i8] c"  -u in_user_file  Specifies the file to be inserted into the user block.\0A\00", align 1
@.str.31 = private unnamed_addr constant [66 x i8] c"                   Can be any file format except an HDF5 format.\0A\00", align 1
@.str.32 = private unnamed_addr constant [52 x i8] c"  -o out_file.h5   Specifies the output HDF5 file.\0A\00", align 1
@.str.33 = private unnamed_addr constant [77 x i8] c"                   If not specified, the user block will be concatenated in\0A\00", align 1
@.str.34 = private unnamed_addr constant [50 x i8] c"                   place to the input HDF5 file.\0A\00", align 1
@.str.35 = private unnamed_addr constant [75 x i8] c"  --clobber        Wipes out any existing user block before concatenating\0A\00", align 1
@.str.36 = private unnamed_addr constant [42 x i8] c"                   the given user block.\0A\00", align 1
@.str.37 = private unnamed_addr constant [74 x i8] c"                   The size of the new user block will be the larger of;\0A\00", align 1
@.str.38 = private unnamed_addr constant [78 x i8] c"                    - the size of existing user block in the input HDF5 file\0A\00", align 1
@.str.39 = private unnamed_addr constant [78 x i8] c"                    - the size of user block required by new input user file\0A\00", align 1
@.str.40 = private unnamed_addr constant [63 x i8] c"                   (size = 512 x 2N,  N is positive integer.)\0A\00", align 1
@.str.41 = private unnamed_addr constant [54 x i8] c"  -h               Prints a usage message and exits.\0A\00", align 1
@.str.42 = private unnamed_addr constant [63 x i8] c"  -V               Prints the HDF5 library version and exits.\0A\00", align 1
@.str.43 = private unnamed_addr constant [14 x i8] c"Exit Status:\0A\00", align 1
@.str.44 = private unnamed_addr constant [19 x i8] c"   0   Succeeded.\0A\00", align 1
@.str.45 = private unnamed_addr constant [27 x i8] c"   >0  An error occurred.\0A\00", align 1

; Function Attrs: nounwind uwtable
define internal void @usage(ptr noundef %0) #0 {
  %2 = alloca ptr, align 8
  store ptr %0, ptr %2, align 8, !tbaa !11
  %3 = load ptr, ptr @stdout, align 8, !tbaa !15
  %4 = call i32 @fflush(ptr noundef %3)
  %5 = load ptr, ptr @stdout, align 8, !tbaa !15
  %6 = load ptr, ptr %2, align 8, !tbaa !11
  %7 = call i32 (ptr, ptr, ...) @fprintf(ptr noundef %5, ptr noundef @.str.25, ptr noundef %6) #6
  %8 = load ptr, ptr @stdout, align 8, !tbaa !15
  %9 = call i32 (ptr, ptr, ...) @fprintf(ptr noundef %8, ptr noundef @.str.26) #6
  %10 = load ptr, ptr @stdout, align 8, !tbaa !15
  %11 = call i32 (ptr, ptr, ...) @fprintf(ptr noundef %10, ptr noundef @.str.27) #6
  %12 = load ptr, ptr @stdout, align 8, !tbaa !15
  %13 = call i32 (ptr, ptr, ...) @fprintf(ptr noundef %12, ptr noundef @.str.26) #6
  %14 = load ptr, ptr @stdout, align 8, !tbaa !15
  %15 = call i32 (ptr, ptr, ...) @fprintf(ptr noundef %14, ptr noundef @.str.28) #6
  %16 = load ptr, ptr @stdout, align 8, !tbaa !15
  %17 = call i32 (ptr, ptr, ...) @fprintf(ptr noundef %16, ptr noundef @.str.29) #6
  %18 = load ptr, ptr @stdout, align 8, !tbaa !15
  %19 = call i32 (ptr, ptr, ...) @fprintf(ptr noundef %18, ptr noundef @.str.30) #6
  %20 = load ptr, ptr @stdout, align 8, !tbaa !15
  %21 = call i32 (ptr, ptr, ...) @fprintf(ptr noundef %20, ptr noundef @.str.31) #6
  %22 = load ptr, ptr @stdout, align 8, !tbaa !15
  %23 = call i32 (ptr, ptr, ...) @fprintf(ptr noundef %22, ptr noundef @.str.32) #6
  %24 = load ptr, ptr @stdout, align 8, !tbaa !15
  %25 = call i32 (ptr, ptr, ...) @fprintf(ptr noundef %24, ptr noundef @.str.33) #6
  %26 = load ptr, ptr @stdout, align 8, !tbaa !15
  %27 = call i32 (ptr, ptr, ...) @fprintf(ptr noundef %26, ptr noundef @.str.34) #6
  %28 = load ptr, ptr @stdout, align 8, !tbaa !15
  %29 = call i32 (ptr, ptr, ...) @fprintf(ptr noundef %28, ptr noundef @.str.35) #6
  %30 = load ptr, ptr @stdout, align 8, !tbaa !15
  %31 = call i32 (ptr, ptr, ...) @fprintf(ptr noundef %30, ptr noundef @.str.36) #6
  %32 = load ptr, ptr @stdout, align 8, !tbaa !15
  %33 = call i32 (ptr, ptr, ...) @fprintf(ptr noundef %32, ptr noundef @.str.37) #6
  %34 = load ptr, ptr @stdout, align 8, !tbaa !15
  %35 = call i32 (ptr, ptr, ...) @fprintf(ptr noundef %34, ptr noundef @.str.38) #6
  %36 = load ptr, ptr @stdout, align 8, !tbaa !15
  %37 = call i32 (ptr, ptr, ...) @fprintf(ptr noundef %36, ptr noundef @.str.39) #6
  %38 = load ptr, ptr @stdout, align 8, !tbaa !15
  %39 = call i32 (ptr, ptr, ...) @fprintf(ptr noundef %38, ptr noundef @.str.40) #6
  %40 = load ptr, ptr @stdout, align 8, !tbaa !15
  %41 = call i32 (ptr, ptr, ...) @fprintf(ptr noundef %40, ptr noundef @.str.26) #6
  %42 = load ptr, ptr @stdout, align 8, !tbaa !15
  %43 = call i32 (ptr, ptr, ...) @fprintf(ptr noundef %42, ptr noundef @.str.41) #6
  %44 = load ptr, ptr @stdout, align 8, !tbaa !15
  %45 = call i32 (ptr, ptr, ...) @fprintf(ptr noundef %44, ptr noundef @.str.42) #6
  %46 = load ptr, ptr @stdout, align 8, !tbaa !15
  %47 = call i32 (ptr, ptr, ...) @fprintf(ptr noundef %46, ptr noundef @.str.26) #6
  %48 = load ptr, ptr @stdout, align 8, !tbaa !15
  %49 = call i32 (ptr, ptr, ...) @fprintf(ptr noundef %48, ptr noundef @.str.43) #6
  %50 = load ptr, ptr @stdout, align 8, !tbaa !15
  %51 = call i32 (ptr, ptr, ...) @fprintf(ptr noundef %50, ptr noundef @.str.44) #6
  %52 = load ptr, ptr @stdout, align 8, !tbaa !15
  %53 = call i32 (ptr, ptr, ...) @fprintf(ptr noundef %52, ptr noundef @.str.45) #6
  ret void
}